#include <math.h>
#include <stdio.h>
#include <stdlib.h>
#include <string.h>

int prime(int k)
{
int p=(int)sqrt(k);
int t;
for (t=3;t<=p;t+=2)
if (k%t==0) break;
if (t>p) return 1; else return 0;
}
main()
{
int n;
scanf("%d",&n);
if (n<=200000)
{
for (int i=3;i<=n/2;i+=2)
if (prime(i))
{
if (prime(n-i))
printf("%d %d\n",i,n-i);
}}
else printf("%d",n);
}
