; ModuleID = '43/1450.c'
source_filename = "43/1450.c"
target datalayout = "e-m:e-p270:32:32-p271:32:32-p272:64:64-i64:64-f80:128-n8:16:32:64-S128"
target triple = "x86_64-pc-linux-gnu"

@.str = private unnamed_addr constant [3 x i8] c"%d\00", align 1
@.str.1 = private unnamed_addr constant [7 x i8] c"%d %d\0A\00", align 1

; Function Attrs: noinline nounwind uwtable
define dso_local i32 @prime(i32 %0) #0 {
  %2 = alloca i32, align 4
  %3 = alloca i32, align 4
  %4 = alloca i32, align 4
  %5 = alloca i32, align 4
  store i32 %0, i32* %3, align 4
  %6 = load i32, i32* %3, align 4
  %7 = sitofp i32 %6 to double
  %8 = call double @sqrt(double %7) #3
  %9 = fptosi double %8 to i32
  store i32 %9, i32* %4, align 4
  store i32 3, i32* %5, align 4
  br label %10

10:                                               ; preds = %21, %1
  %11 = load i32, i32* %5, align 4
  %12 = load i32, i32* %4, align 4
  %13 = icmp sle i32 %11, %12
  br i1 %13, label %14, label %24

14:                                               ; preds = %10
  %15 = load i32, i32* %3, align 4
  %16 = load i32, i32* %5, align 4
  %17 = srem i32 %15, %16
  %18 = icmp eq i32 %17, 0
  br i1 %18, label %19, label %20

19:                                               ; preds = %14
  br label %24

20:                                               ; preds = %14
  br label %21

21:                                               ; preds = %20
  %22 = load i32, i32* %5, align 4
  %23 = add nsw i32 %22, 2
  store i32 %23, i32* %5, align 4
  br label %10

24:                                               ; preds = %19, %10
  %25 = load i32, i32* %5, align 4
  %26 = load i32, i32* %4, align 4
  %27 = icmp sgt i32 %25, %26
  br i1 %27, label %28, label %29

28:                                               ; preds = %24
  store i32 1, i32* %2, align 4
  br label %30

29:                                               ; preds = %24
  store i32 0, i32* %2, align 4
  br label %30

30:                                               ; preds = %29, %28
  %31 = load i32, i32* %2, align 4
  ret i32 %31
}

; Function Attrs: nounwind
declare dso_local double @sqrt(double) #1

; Function Attrs: noinline nounwind uwtable
define dso_local i32 @main() #0 {
  %1 = alloca i32, align 4
  %2 = alloca i32, align 4
  %3 = alloca i32, align 4
  store i32 0, i32* %1, align 4
  %4 = call i32 (i8*, ...) @__isoc99_scanf(i8* getelementptr inbounds ([3 x i8], [3 x i8]* @.str, i64 0, i64 0), i32* %2)
  %5 = load i32, i32* %2, align 4
  %6 = icmp sle i32 %5, 200000
  br i1 %6, label %7, label %35

7:                                                ; preds = %0
  store i32 3, i32* %3, align 4
  br label %8

8:                                                ; preds = %31, %7
  %9 = load i32, i32* %3, align 4
  %10 = load i32, i32* %2, align 4
  %11 = sdiv i32 %10, 2
  %12 = icmp sle i32 %9, %11
  br i1 %12, label %13, label %34

13:                                               ; preds = %8
  %14 = load i32, i32* %3, align 4
  %15 = call i32 @prime(i32 %14)
  %16 = icmp ne i32 %15, 0
  br i1 %16, label %17, label %30

17:                                               ; preds = %13
  %18 = load i32, i32* %2, align 4
  %19 = load i32, i32* %3, align 4
  %20 = sub nsw i32 %18, %19
  %21 = call i32 @prime(i32 %20)
  %22 = icmp ne i32 %21, 0
  br i1 %22, label %23, label %29

23:                                               ; preds = %17
  %24 = load i32, i32* %3, align 4
  %25 = load i32, i32* %2, align 4
  %26 = load i32, i32* %3, align 4
  %27 = sub nsw i32 %25, %26
  %28 = call i32 (i8*, ...) @printf(i8* getelementptr inbounds ([7 x i8], [7 x i8]* @.str.1, i64 0, i64 0), i32 %24, i32 %27)
  br label %29

29:                                               ; preds = %23, %17
  br label %30

30:                                               ; preds = %29, %13
  br label %31

31:                                               ; preds = %30
  %32 = load i32, i32* %3, align 4
  %33 = add nsw i32 %32, 2
  store i32 %33, i32* %3, align 4
  br label %8

34:                                               ; preds = %8
  br label %38

35:                                               ; preds = %0
  %36 = load i32, i32* %2, align 4
  %37 = call i32 (i8*, ...) @printf(i8* getelementptr inbounds ([3 x i8], [3 x i8]* @.str, i64 0, i64 0), i32 %36)
  br label %38

38:                                               ; preds = %35, %34
  %39 = load i32, i32* %1, align 4
  ret i32 %39
}

declare dso_local i32 @__isoc99_scanf(i8*, ...) #2

declare dso_local i32 @printf(i8*, ...) #2


!llvm.module.flags = !{!0}
!llvm.ident = !{!1}

!0 = !{i32 1, !"wchar_size", i32 4}
!1 = !{!"clang version 10.0.0-4ubuntu1 "}
