; ModuleID = 'source-C-CXX/42/1450.c'
source_filename = "source-C-CXX/42/1450.c"
target datalayout = "e-m:e-p270:32:32-p271:32:32-p272:64:64-i64:64-f80:128-n8:16:32:64-S128"
target triple = "x86_64-pc-linux-gnu"

@.str = private unnamed_addr constant [3 x i8] c"%d\00", align 1
@.str.1 = private unnamed_addr constant [7 x i8] c"%d %d\0A\00", align 1

; Function Attrs: nofree nounwind sspstrong uwtable
define dso_local i32 @prime(i32 %0) local_unnamed_addr #0 {
  %2 = sitofp i32 %0 to double
  %3 = tail call double @sqrt(double %2) #4
  %4 = fptosi double %3 to i32
  %5 = icmp slt i32 %4, 3
  br i1 %5, label %16, label %6

6:                                                ; preds = %1, %6
  %7 = phi i32 [ %10, %6 ], [ 3, %1 ]
  %8 = srem i32 %0, %7
  %9 = icmp eq i32 %8, 0
  %10 = add nuw nsw i32 %7, 2
  %11 = icmp sgt i32 %10, %4
  %12 = select i1 %9, i1 true, i1 %11
  br i1 %12, label %13, label %6, !llvm.loop !5

13:                                               ; preds = %6
  %14 = xor i1 %9, true
  %15 = zext i1 %14 to i32
  br label %16

16:                                               ; preds = %13, %1
  %17 = phi i32 [ 1, %1 ], [ %15, %13 ]
  ret i32 %17
}

; Function Attrs: argmemonly mustprogress nofree nosync nounwind willreturn
declare void @llvm.lifetime.start.p0i8(i64 immarg, i8* nocapture) #1

; Function Attrs: mustprogress nofree nounwind willreturn
declare double @sqrt(double) local_unnamed_addr #2

; Function Attrs: argmemonly mustprogress nofree nosync nounwind willreturn
declare void @llvm.lifetime.end.p0i8(i64 immarg, i8* nocapture) #1

; Function Attrs: nofree nounwind sspstrong uwtable
define dso_local i32 @main() local_unnamed_addr #0 {
  %1 = alloca i32, align 4
  %2 = bitcast i32* %1 to i8*
  call void @llvm.lifetime.start.p0i8(i64 4, i8* nonnull %2) #4
  %3 = call i32 (i8*, ...) @__isoc99_scanf(i8* getelementptr inbounds ([3 x i8], [3 x i8]* @.str, i64 0, i64 0), i32* nonnull %1)
  %4 = load i32, i32* %1, align 4, !tbaa !7
  %5 = icmp slt i32 %4, 200001
  br i1 %5, label %6, label %46

6:                                                ; preds = %0
  %7 = icmp slt i32 %4, 6
  br i1 %7, label %48, label %8

8:                                                ; preds = %6, %41
  %9 = phi i32 [ %42, %41 ], [ 3, %6 ]
  %10 = sitofp i32 %9 to double
  %11 = call double @sqrt(double %10) #4
  %12 = fptosi double %11 to i32
  %13 = icmp slt i32 %12, 3
  br i1 %13, label %22, label %14

14:                                               ; preds = %8, %14
  %15 = phi i32 [ %18, %14 ], [ 3, %8 ]
  %16 = urem i32 %9, %15
  %17 = icmp eq i32 %16, 0
  %18 = add nuw nsw i32 %15, 2
  %19 = icmp sgt i32 %18, %12
  %20 = select i1 %17, i1 true, i1 %19
  br i1 %20, label %21, label %14, !llvm.loop !5

21:                                               ; preds = %14
  br i1 %17, label %41, label %22

22:                                               ; preds = %8, %21
  %23 = load i32, i32* %1, align 4, !tbaa !7
  %24 = sub nsw i32 %23, %9
  %25 = sitofp i32 %24 to double
  %26 = call double @sqrt(double %25) #4
  %27 = fptosi double %26 to i32
  %28 = icmp slt i32 %27, 3
  br i1 %28, label %37, label %29

29:                                               ; preds = %22, %29
  %30 = phi i32 [ %33, %29 ], [ 3, %22 ]
  %31 = srem i32 %24, %30
  %32 = icmp eq i32 %31, 0
  %33 = add nuw nsw i32 %30, 2
  %34 = icmp sgt i32 %33, %27
  %35 = select i1 %32, i1 true, i1 %34
  br i1 %35, label %36, label %29, !llvm.loop !5

36:                                               ; preds = %29
  br i1 %32, label %41, label %37

37:                                               ; preds = %22, %36
  %38 = load i32, i32* %1, align 4, !tbaa !7
  %39 = sub nsw i32 %38, %9
  %40 = call i32 (i8*, ...) @printf(i8* nonnull dereferenceable(1) getelementptr inbounds ([7 x i8], [7 x i8]* @.str.1, i64 0, i64 0), i32 %9, i32 %39)
  br label %41

41:                                               ; preds = %21, %37, %36
  %42 = add nuw nsw i32 %9, 2
  %43 = load i32, i32* %1, align 4, !tbaa !7
  %44 = sdiv i32 %43, 2
  %45 = icmp sgt i32 %42, %44
  br i1 %45, label %48, label %8, !llvm.loop !11

46:                                               ; preds = %0
  %47 = call i32 (i8*, ...) @printf(i8* nonnull dereferenceable(1) getelementptr inbounds ([3 x i8], [3 x i8]* @.str, i64 0, i64 0), i32 %4)
  br label %48

48:                                               ; preds = %41, %6, %46
  call void @llvm.lifetime.end.p0i8(i64 4, i8* nonnull %2) #4
  ret i32 0
}

; Function Attrs: nofree nounwind
declare noundef i32 @__isoc99_scanf(i8* nocapture noundef readonly, ...) local_unnamed_addr #3

; Function Attrs: nofree nounwind
declare noundef i32 @printf(i8* nocapture noundef readonly, ...) local_unnamed_addr #3


!llvm.module.flags = !{!0, !1, !2, !3}
!llvm.ident = !{!4}

!0 = !{i32 1, !"wchar_size", i32 4}
!1 = !{i32 7, !"PIC Level", i32 2}
!2 = !{i32 7, !"PIE Level", i32 2}
!3 = !{i32 7, !"uwtable", i32 1}
!4 = !{!"clang version 13.0.0"}
!5 = distinct !{!5, !6}
!6 = !{!"llvm.loop.mustprogress"}
!7 = !{!8, !8, i64 0}
!8 = !{!"int", !9, i64 0}
!9 = !{!"omnipotent char", !10, i64 0}
!10 = !{!"Simple C/C++ TBAA"}
!11 = distinct !{!11, !6}
